target datalayout = "e-m:e-p270:32:32-p271:32:32-p272:64:64-i64:64-i128:128-f80:128-n8:16:32:64-S128"
target triple = "x86_64-pc-linux-gnu"

%"class.llvm::ArrayRef" = type { ptr, i64 }
%"class.llvm::SmallVectorBase" = type { ptr, i64, i64 }

@.str.3 = private unnamed_addr constant [27 x i8] c"Failed to create ZSTD_CCtx\00", align 1
@.str.4 = private unnamed_addr constant [48 x i8] c"Failed to set ZSTD_c_enableLongDistanceMatching\00", align 1
@.str.5 = private unnamed_addr constant [38 x i8] c"Failed to set ZSTD_c_compressionLevel\00", align 1
@.str.6 = private unnamed_addr constant [19 x i8] c"Compression failed\00", align 1

; Function Attrs: mustprogress nounwind uwtable
define linkonce_odr hidden noundef ptr @_ZNK4llvm25SmallVectorTemplateCommonIhvE10getFirstElEv(ptr noundef nonnull align 8 dereferenceable(24) %0) #0 comdat align 2 {
  %2 = alloca ptr, align 8
  store ptr %0, ptr %2, align 8
  %3 = load ptr, ptr %2, align 8
  %4 = getelementptr inbounds i8, ptr %3, i64 24
  ret ptr %4
}

; Function Attrs: mustprogress nounwind uwtable
define linkonce_odr hidden void @_ZN4llvm25SmallVectorTemplateCommonIhvE8grow_podEmm(ptr noundef nonnull align 8 dereferenceable(24) %0, i64 noundef %1, i64 noundef %2) #0 comdat align 2 {
  %4 = alloca ptr, align 8
  %5 = alloca i64, align 8
  %6 = alloca i64, align 8
  store ptr %0, ptr %4, align 8
  store i64 %1, ptr %5, align 8
  store i64 %2, ptr %6, align 8
  %7 = load ptr, ptr %4, align 8
  %8 = call noundef ptr @_ZNK4llvm25SmallVectorTemplateCommonIhvE10getFirstElEv(ptr noundef nonnull align 8 dereferenceable(24) %7)
  %9 = load i64, ptr %5, align 8
  %10 = load i64, ptr %6, align 8
  call void @_ZN4llvm15SmallVectorBaseImE8grow_podEPvmm(ptr noundef nonnull align 8 dereferenceable(24) %7, ptr noundef %8, i64 noundef %9, i64 noundef %10)
  ret void
}

; Function Attrs: mustprogress nounwind uwtable
define linkonce_odr hidden void @_ZN4llvm23SmallVectorTemplateBaseIhLb1EE4growEm(ptr noundef nonnull align 8 dereferenceable(24) %0, i64 noundef %1) #0 comdat align 2 {
  %3 = alloca ptr, align 8
  %4 = alloca i64, align 8
  store ptr %0, ptr %3, align 8
  store i64 %1, ptr %4, align 8
  %5 = load ptr, ptr %3, align 8
  %6 = load i64, ptr %4, align 8
  call void @_ZN4llvm25SmallVectorTemplateCommonIhvE8grow_podEmm(ptr noundef nonnull align 8 dereferenceable(24) %5, i64 noundef %6, i64 noundef 1)
  ret void
}

; Function Attrs: mustprogress nounwind uwtable
define linkonce_odr hidden void @_ZN4llvm15SmallVectorImplIhE7reserveEm(ptr noundef nonnull align 8 dereferenceable(24) %0, i64 noundef %1) #0 comdat align 2 {
  %3 = alloca ptr, align 8
  %4 = alloca i64, align 8
  store ptr %0, ptr %3, align 8
  store i64 %1, ptr %4, align 8
  %5 = load ptr, ptr %3, align 8
  %6 = call noundef i64 @_ZNK4llvm15SmallVectorBaseImE8capacityEv(ptr noundef nonnull align 8 dereferenceable(24) %5)
  %7 = load i64, ptr %4, align 8
  %8 = icmp ult i64 %6, %7
  br i1 %8, label %9, label %11

9:                                                ; preds = %2
  %10 = load i64, ptr %4, align 8
  call void @_ZN4llvm23SmallVectorTemplateBaseIhLb1EE4growEm(ptr noundef nonnull align 8 dereferenceable(24) %5, i64 noundef %10)
  br label %11

11:                                               ; preds = %9, %2
  ret void
}

; Function Attrs: mustprogress nounwind uwtable
define linkonce_odr hidden void @_ZN4llvm23SmallVectorTemplateBaseIhLb1EE13destroy_rangeEPhS2_(ptr noundef %0, ptr noundef %1) #0 comdat align 2 {
  %3 = alloca ptr, align 8
  %4 = alloca ptr, align 8
  store ptr %0, ptr %3, align 8
  store ptr %1, ptr %4, align 8
  ret void
}

; Function Attrs: mustprogress nounwind uwtable
define linkonce_odr hidden noundef ptr @_ZN4llvm25SmallVectorTemplateCommonIhvE3endEv(ptr noundef nonnull align 8 dereferenceable(24) %0) #0 comdat align 2 {
  %2 = alloca ptr, align 8
  store ptr %0, ptr %2, align 8
  %3 = load ptr, ptr %2, align 8
  %4 = call noundef ptr @_ZN4llvm25SmallVectorTemplateCommonIhvE5beginEv(ptr noundef nonnull align 8 dereferenceable(24) %3)
  %5 = call noundef i64 @_ZNK4llvm15SmallVectorBaseImE4sizeEv(ptr noundef nonnull align 8 dereferenceable(24) %3)
  %6 = getelementptr inbounds i8, ptr %4, i64 %5
  ret ptr %6
}

; Function Attrs: mustprogress nounwind uwtable
define linkonce_odr hidden noundef ptr @_ZN4llvm25SmallVectorTemplateCommonIhvE5beginEv(ptr noundef nonnull align 8 dereferenceable(24) %0) #0 comdat align 2 {
  %2 = alloca ptr, align 8
  store ptr %0, ptr %2, align 8
  %3 = load ptr, ptr %2, align 8
  %4 = getelementptr inbounds nuw %"class.llvm::SmallVectorBase", ptr %3, i32 0, i32 0
  %5 = load ptr, ptr %4, align 8
  ret ptr %5
}

; Function Attrs: mustprogress nounwind uwtable
define linkonce_odr hidden void @_ZN4llvm15SmallVectorImplIhE10resizeImplILb1EEEvm(ptr noundef nonnull align 8 dereferenceable(24) %0, i64 noundef %1) #0 comdat align 2 {
  %3 = alloca ptr, align 8
  %4 = alloca i64, align 8
  %5 = alloca ptr, align 8
  %6 = alloca ptr, align 8
  store ptr %0, ptr %3, align 8
  store i64 %1, ptr %4, align 8
  %7 = load ptr, ptr %3, align 8
  %8 = load i64, ptr %4, align 8
  %9 = call noundef i64 @_ZNK4llvm15SmallVectorBaseImE4sizeEv(ptr noundef nonnull align 8 dereferenceable(24) %7)
  %10 = icmp eq i64 %8, %9
  br i1 %10, label %11, label %12

11:                                               ; preds = %2
  br label %34

12:                                               ; preds = %2
  %13 = load i64, ptr %4, align 8
  %14 = call noundef i64 @_ZNK4llvm15SmallVectorBaseImE4sizeEv(ptr noundef nonnull align 8 dereferenceable(24) %7)
  %15 = icmp ult i64 %13, %14
  br i1 %15, label %16, label %18

16:                                               ; preds = %12
  %17 = load i64, ptr %4, align 8
  call void @_ZN4llvm15SmallVectorImplIhE8truncateEm(ptr noundef nonnull align 8 dereferenceable(24) %7, i64 noundef %17)
  br label %34

18:                                               ; preds = %12
  %19 = load i64, ptr %4, align 8
  call void @_ZN4llvm15SmallVectorImplIhE7reserveEm(ptr noundef nonnull align 8 dereferenceable(24) %7, i64 noundef %19)
  %20 = call noundef ptr @_ZN4llvm25SmallVectorTemplateCommonIhvE3endEv(ptr noundef nonnull align 8 dereferenceable(24) %7)
  store ptr %20, ptr %5, align 8
  %21 = call noundef ptr @_ZN4llvm25SmallVectorTemplateCommonIhvE5beginEv(ptr noundef nonnull align 8 dereferenceable(24) %7)
  %22 = load i64, ptr %4, align 8
  %23 = getelementptr inbounds i8, ptr %21, i64 %22
  store ptr %23, ptr %6, align 8
  br label %24

24:                                               ; preds = %29, %18
  %25 = load ptr, ptr %5, align 8
  %26 = load ptr, ptr %6, align 8
  %27 = icmp ne ptr %25, %26
  br i1 %27, label %28, label %32

28:                                               ; preds = %24
  br label %29

29:                                               ; preds = %28
  %30 = load ptr, ptr %5, align 8
  %31 = getelementptr inbounds i8, ptr %30, i32 1
  store ptr %31, ptr %5, align 8
  br label %24, !llvm.loop !4

32:                                               ; preds = %24
  %33 = load i64, ptr %4, align 8
  call void @_ZN4llvm15SmallVectorBaseImE8set_sizeEm(ptr noundef nonnull align 8 dereferenceable(24) %7, i64 noundef %33)
  br label %34

34:                                               ; preds = %32, %16, %11
  ret void
}

; Function Attrs: mustprogress nounwind uwtable
define linkonce_odr hidden void @_ZN4llvm15SmallVectorImplIhE8truncateEm(ptr noundef nonnull align 8 dereferenceable(24) %0, i64 noundef %1) #0 comdat align 2 {
  %3 = alloca ptr, align 8
  %4 = alloca i64, align 8
  store ptr %0, ptr %3, align 8
  store i64 %1, ptr %4, align 8
  %5 = load ptr, ptr %3, align 8
  %6 = call noundef ptr @_ZN4llvm25SmallVectorTemplateCommonIhvE5beginEv(ptr noundef nonnull align 8 dereferenceable(24) %5)
  %7 = load i64, ptr %4, align 8
  %8 = getelementptr inbounds i8, ptr %6, i64 %7
  %9 = call noundef ptr @_ZN4llvm25SmallVectorTemplateCommonIhvE3endEv(ptr noundef nonnull align 8 dereferenceable(24) %5)
  call void @_ZN4llvm23SmallVectorTemplateBaseIhLb1EE13destroy_rangeEPhS2_(ptr noundef %8, ptr noundef %9)
  %10 = load i64, ptr %4, align 8
  call void @_ZN4llvm15SmallVectorBaseImE8set_sizeEm(ptr noundef nonnull align 8 dereferenceable(24) %5, i64 noundef %10)
  ret void
}

; Function Attrs: mustprogress nounwind uwtable
define linkonce_odr hidden noundef ptr @_ZNK4llvm8ArrayRefIhE4dataEv(ptr noundef nonnull align 8 dereferenceable(16) %0) #0 comdat align 2 {
  %2 = alloca ptr, align 8
  store ptr %0, ptr %2, align 8
  %3 = load ptr, ptr %2, align 8
  %4 = getelementptr inbounds nuw %"class.llvm::ArrayRef", ptr %3, i32 0, i32 0
  %5 = load ptr, ptr %4, align 8
  ret ptr %5
}

; Function Attrs: mustprogress nounwind uwtable
define linkonce_odr hidden noundef ptr @_ZN4llvm25SmallVectorTemplateCommonIhvE4dataEv(ptr noundef nonnull align 8 dereferenceable(24) %0) #0 comdat align 2 {
  %2 = alloca ptr, align 8
  store ptr %0, ptr %2, align 8
  %3 = load ptr, ptr %2, align 8
  %4 = call noundef ptr @_ZN4llvm25SmallVectorTemplateCommonIhvE5beginEv(ptr noundef nonnull align 8 dereferenceable(24) %3)
  ret ptr %4
}

; Function Attrs: mustprogress nounwind uwtable
define linkonce_odr hidden void @_ZN4llvm15SmallVectorImplIhE20resize_for_overwriteEm(ptr noundef nonnull align 8 dereferenceable(24) %0, i64 noundef %1) #0 comdat align 2 {
  %3 = alloca ptr, align 8
  %4 = alloca i64, align 8
  store ptr %0, ptr %3, align 8
  store i64 %1, ptr %4, align 8
  %5 = load ptr, ptr %3, align 8
  %6 = load i64, ptr %4, align 8
  call void @_ZN4llvm15SmallVectorImplIhE10resizeImplILb1EEEvm(ptr noundef nonnull align 8 dereferenceable(24) %5, i64 noundef %6)
  ret void
}

; Function Attrs: mustprogress nounwind uwtable
define linkonce_odr hidden noundef i64 @_ZNK4llvm8ArrayRefIhE4sizeEv(ptr noundef nonnull align 8 dereferenceable(16) %0) #0 comdat align 2 {
  %2 = alloca ptr, align 8
  store ptr %0, ptr %2, align 8
  %3 = load ptr, ptr %2, align 8
  %4 = getelementptr inbounds nuw %"class.llvm::ArrayRef", ptr %3, i32 0, i32 1
  %5 = load i64, ptr %4, align 8
  ret i64 %5
}

; Function Attrs: mustprogress nounwind uwtable
define dso_local void @_ZN4llvm11compression4zstd8compressENS_8ArrayRefIhEERNS_15SmallVectorImplIhEEib(ptr %0, i64 %1, ptr noundef nonnull align 1 %2, i32 noundef %3, i1 noundef zeroext %4) #0 {
  %6 = alloca %"class.llvm::ArrayRef", align 8
  %7 = alloca ptr, align 8
  %8 = alloca i32, align 4
  %9 = alloca i8, align 1
  %10 = alloca ptr, align 8
  %11 = alloca i64, align 8
  %12 = alloca i64, align 8
  %13 = getelementptr inbounds nuw { ptr, i64 }, ptr %6, i32 0, i32 0
  store ptr %0, ptr %13, align 8
  %14 = getelementptr inbounds nuw { ptr, i64 }, ptr %6, i32 0, i32 1
  store i64 %1, ptr %14, align 8
  store ptr %2, ptr %7, align 8
  store i32 %3, ptr %8, align 4
  %15 = zext i1 %4 to i8
  store i8 %15, ptr %9, align 1
  %16 = call ptr @ZSTD_createCCtx()
  store ptr %16, ptr %10, align 8
  %17 = load ptr, ptr %10, align 8
  %18 = icmp ne ptr %17, null
  br i1 %18, label %20, label %19

19:                                               ; preds = %5
  call void @_ZN4llvm22report_bad_alloc_errorEPKcb(ptr noundef @.str.3, i1 noundef zeroext true) #7
  unreachable

20:                                               ; preds = %5
  %21 = load ptr, ptr %10, align 8
  %22 = load i8, ptr %9, align 1
  %23 = trunc i8 %22 to i1
  %24 = select i1 %23, i32 1, i32 0
  %25 = call i64 @ZSTD_CCtx_setParameter(ptr noundef %21, i32 noundef 160, i32 noundef %24)
  %26 = call i32 @ZSTD_isError(i64 noundef %25)
  %27 = icmp ne i32 %26, 0
  br i1 %27, label %28, label %31

28:                                               ; preds = %20
  %29 = load ptr, ptr %10, align 8
  %30 = call i64 @ZSTD_freeCCtx(ptr noundef %29)
  call void @_ZN4llvm22report_bad_alloc_errorEPKcb(ptr noundef @.str.4, i1 noundef zeroext true) #7
  unreachable

31:                                               ; preds = %20
  %32 = load ptr, ptr %10, align 8
  %33 = load i32, ptr %8, align 4
  %34 = call i64 @ZSTD_CCtx_setParameter(ptr noundef %32, i32 noundef 100, i32 noundef %33)
  %35 = call i32 @ZSTD_isError(i64 noundef %34)
  %36 = icmp ne i32 %35, 0
  br i1 %36, label %37, label %40

37:                                               ; preds = %31
  %38 = load ptr, ptr %10, align 8
  %39 = call i64 @ZSTD_freeCCtx(ptr noundef %38)
  call void @_ZN4llvm22report_bad_alloc_errorEPKcb(ptr noundef @.str.5, i1 noundef zeroext true) #7
  unreachable

40:                                               ; preds = %31
  %41 = call noundef i64 @_ZNK4llvm8ArrayRefIhE4sizeEv(ptr noundef nonnull align 8 dereferenceable(16) %6)
  %42 = call i64 @ZSTD_compressBound(i64 noundef %41)
  store i64 %42, ptr %11, align 8
  %43 = load ptr, ptr %7, align 8
  %44 = load i64, ptr %11, align 8
  call void @_ZN4llvm15SmallVectorImplIhE20resize_for_overwriteEm(ptr noundef nonnull align 8 dereferenceable(24) %43, i64 noundef %44)
  %45 = load ptr, ptr %10, align 8
  %46 = load ptr, ptr %7, align 8
  %47 = call noundef ptr @_ZN4llvm25SmallVectorTemplateCommonIhvE4dataEv(ptr noundef nonnull align 8 dereferenceable(24) %46)
  %48 = load i64, ptr %11, align 8
  %49 = call noundef ptr @_ZNK4llvm8ArrayRefIhE4dataEv(ptr noundef nonnull align 8 dereferenceable(16) %6)
  %50 = call noundef i64 @_ZNK4llvm8ArrayRefIhE4sizeEv(ptr noundef nonnull align 8 dereferenceable(16) %6)
  %51 = call i64 @ZSTD_compress2(ptr noundef %45, ptr noundef %47, i64 noundef %48, ptr noundef %49, i64 noundef %50)
  store i64 %51, ptr %12, align 8
  %52 = load ptr, ptr %10, align 8
  %53 = call i64 @ZSTD_freeCCtx(ptr noundef %52)
  %54 = load i64, ptr %12, align 8
  %55 = call i32 @ZSTD_isError(i64 noundef %54)
  %56 = icmp ne i32 %55, 0
  br i1 %56, label %57, label %58

57:                                               ; preds = %40
  call void @_ZN4llvm22report_bad_alloc_errorEPKcb(ptr noundef @.str.6, i1 noundef zeroext true) #7
  unreachable

58:                                               ; preds = %40
  %59 = load i64, ptr %12, align 8
  %60 = load ptr, ptr %7, align 8
  %61 = call noundef i64 @_ZNK4llvm15SmallVectorBaseImE4sizeEv(ptr noundef nonnull align 8 dereferenceable(24) %60)
  %62 = icmp ult i64 %59, %61
  br i1 %62, label %63, label %66

63:                                               ; preds = %58
  %64 = load ptr, ptr %7, align 8
  %65 = load i64, ptr %12, align 8
  call void @_ZN4llvm15SmallVectorImplIhE8truncateEm(ptr noundef nonnull align 8 dereferenceable(24) %64, i64 noundef %65)
  br label %66

66:                                               ; preds = %63, %58
  ret void
}