; Function Attrs: mustprogress nounwind uwtable
define dso_local void @_ZN4llvm11compression4zstd8compressENS_8ArrayRefIhEERNS_15SmallVectorImplIhEEib(ptr %0, i64 %1, ptr noundef nonnull align 1 %2, i32 noundef %3, i1 noundef zeroext %4) local_unnamed_addr #1 {
  %6 = tail call ptr @ZSTD_createCCtx() #7
  %.not = icmp eq ptr %6, null
  br i1 %.not, label %7, label %8

7:                                                ; preds = %5
  tail call void @_ZN4llvm22report_bad_alloc_errorEPKcb(ptr noundef nonnull @.str.3, i1 noundef zeroext true) #8
  unreachable

8:                                                ; preds = %5
  %9 = zext i1 %4 to i32
  %10 = tail call i64 @ZSTD_CCtx_setParameter(ptr noundef nonnull %6, i32 noundef 160, i32 noundef %9) #7
  %11 = tail call i32 @ZSTD_isError(i64 noundef %10) #7
  %.not18 = icmp eq i32 %11, 0
  br i1 %.not18, label %14, label %12

12:                                               ; preds = %8
  %13 = tail call i64 @ZSTD_freeCCtx(ptr noundef nonnull %6) #7
  tail call void @_ZN4llvm22report_bad_alloc_errorEPKcb(ptr noundef nonnull @.str.4, i1 noundef zeroext true) #8
  unreachable

14:                                               ; preds = %8
  %15 = tail call i64 @ZSTD_CCtx_setParameter(ptr noundef nonnull %6, i32 noundef 100, i32 noundef %3) #7
  %16 = tail call i32 @ZSTD_isError(i64 noundef %15) #7
  %.not19 = icmp eq i32 %16, 0
  br i1 %.not19, label %19, label %17

17:                                               ; preds = %14
  %18 = tail call i64 @ZSTD_freeCCtx(ptr noundef nonnull %6) #7
  tail call void @_ZN4llvm22report_bad_alloc_errorEPKcb(ptr noundef nonnull @.str.5, i1 noundef zeroext true) #8
  unreachable

19:                                               ; preds = %14
  %20 = tail call i64 @ZSTD_compressBound(i64 noundef %1) #7
  %21 = tail call noundef i64 @_ZNK4llvm15SmallVectorBaseImE4sizeEv(ptr noundef nonnull align 8 dereferenceable(24) %2) #7
  %22 = icmp eq i64 %20, %21
  br i1 %22, label %_ZN4llvm15SmallVectorImplIhE20resize_for_overwriteEm.exit, label %23

23:                                               ; preds = %19
  %24 = tail call noundef i64 @_ZNK4llvm15SmallVectorBaseImE4sizeEv(ptr noundef nonnull align 8 dereferenceable(24) %2) #7
  %25 = icmp ult i64 %20, %24
  br i1 %25, label %.sink.split.i.i, label %26

26:                                               ; preds = %23
  %27 = tail call noundef i64 @_ZNK4llvm15SmallVectorBaseImE8capacityEv(ptr noundef nonnull align 8 dereferenceable(24) %2) #7
  %28 = icmp ult i64 %27, %20
  br i1 %28, label %29, label %.sink.split.i.i

29:                                               ; preds = %26
  %30 = getelementptr inbounds i8, ptr %2, i64 24
  tail call void @_ZN4llvm15SmallVectorBaseImE8grow_podEPvmm(ptr noundef nonnull align 8 dereferenceable(24) %2, ptr noundef nonnull %30, i64 noundef %20, i64 noundef 1) #7
  br label %.sink.split.i.i

.sink.split.i.i:                                  ; preds = %29, %26, %23
  %31 = tail call noundef i64 @_ZNK4llvm15SmallVectorBaseImE4sizeEv(ptr noundef nonnull align 8 dereferenceable(24) %2) #7
  tail call void @_ZN4llvm15SmallVectorBaseImE8set_sizeEm(ptr noundef nonnull align 8 dereferenceable(24) %2, i64 noundef %20) #7
  br label %_ZN4llvm15SmallVectorImplIhE20resize_for_overwriteEm.exit

_ZN4llvm15SmallVectorImplIhE20resize_for_overwriteEm.exit: ; preds = %19, %.sink.split.i.i
  %32 = load ptr, ptr %2, align 8
  %33 = tail call i64 @ZSTD_compress2(ptr noundef nonnull %6, ptr noundef %32, i64 noundef %20, ptr noundef %0, i64 noundef %1) #7
  %34 = tail call i64 @ZSTD_freeCCtx(ptr noundef nonnull %6) #7
  %35 = tail call i32 @ZSTD_isError(i64 noundef %33) #7
  %.not20 = icmp eq i32 %35, 0
  br i1 %.not20, label %37, label %36

36:                                               ; preds = %_ZN4llvm15SmallVectorImplIhE20resize_for_overwriteEm.exit
  tail call void @_ZN4llvm22report_bad_alloc_errorEPKcb(ptr noundef nonnull @.str.6, i1 noundef zeroext true) #8
  unreachable

37:                                               ; preds = %_ZN4llvm15SmallVectorImplIhE20resize_for_overwriteEm.exit
  %38 = tail call noundef i64 @_ZNK4llvm15SmallVectorBaseImE4sizeEv(ptr noundef nonnull align 8 dereferenceable(24) %2) #7
  %39 = icmp ult i64 %33, %38
  br i1 %39, label %40, label %42

40:                                               ; preds = %37
  %41 = tail call noundef i64 @_ZNK4llvm15SmallVectorBaseImE4sizeEv(ptr noundef nonnull align 8 dereferenceable(24) %2) #7
  tail call void @_ZN4llvm15SmallVectorBaseImE8set_sizeEm(ptr noundef nonnull align 8 dereferenceable(24) %2, i64 noundef %33) #7
  br label %42

42:                                               ; preds = %40, %37
  ret void
}